target datalayout = "e-m:e-p270:32:32-p271:32:32-p272:64:64-i64:64-i128:128-f80:128-n8:16:32:64-S128"
target triple = "x86_64-unknown-linux-gnu"

%"class.QuantLib::Settings" = type <{ %"class.QuantLib::Settings::DateProxy", i8, %"class.boost::optional", i8, [4 x i8] }>
%"class.QuantLib::Settings::DateProxy" = type { %"class.QuantLib::ObservableValue" }
%"class.QuantLib::ObservableValue" = type { %"class.QuantLib::Date", %"class.boost::shared_ptr" }
%"class.QuantLib::Date" = type { i64 }
%"class.boost::shared_ptr" = type { ptr, %"class.boost::detail::shared_count" }
%"class.boost::detail::shared_count" = type { ptr }
%"class.boost::optional" = type { %"class.boost::optional_detail::tc_optional_base" }
%"class.boost::optional_detail::tc_optional_base" = type { i8, i8 }

@_ZN8QuantLib8Settings9DateProxyC1Ev = unnamed_addr alias void (ptr), ptr @_ZN8QuantLib8Settings9DateProxyC2Ev

; Function Attrs: noinline noreturn nounwind uwtable
define linkonce_odr hidden void @__clang_call_terminate(ptr noundef %0) #2 comdat {
  %2 = call ptr @__cxa_begin_catch(ptr %0) #10
  call void @_ZSt9terminatev() #14
  unreachable
}

; Function Attrs: mustprogress nounwind uwtable
define linkonce_odr void @_ZN5boost15optional_detail16tc_optional_baseIbEC2Ev(ptr noundef nonnull align 1 dereferenceable(2) %this) unnamed_addr #5 comdat align 2 {
entry:
  %this.addr = alloca ptr, align 8
  store ptr %this, ptr %this.addr, align 8, !tbaa !3
  %this1 = load ptr, ptr %this.addr, align 8
  %m_initialized = getelementptr inbounds nuw %"class.boost::optional_detail::tc_optional_base", ptr %this1, i32 0, i32 0
  store i8 0, ptr %m_initialized, align 1, !tbaa !52
  ret void
}

; Function Attrs: mustprogress nounwind uwtable
define linkonce_odr void @_ZN5boost8optionalIbEC2Ev(ptr noundef nonnull align 1 dereferenceable(2) %this) unnamed_addr #5 comdat align 2 personality ptr @__gxx_personality_v0 {
entry:
  %this.addr = alloca ptr, align 8
  store ptr %this, ptr %this.addr, align 8, !tbaa !3
  %this1 = load ptr, ptr %this.addr, align 8
  invoke void @_ZN5boost15optional_detail16tc_optional_baseIbEC2Ev(ptr noundef nonnull align 1 dereferenceable(2) %this1)
          to label %invoke.cont unwind label %terminate.lpad

invoke.cont:                                      ; preds = %entry
  ret void

terminate.lpad:                                   ; preds = %entry
  %0 = landingpad { ptr, i32 }
          catch ptr null
  %1 = extractvalue { ptr, i32 } %0, 0
  call void @__clang_call_terminate(ptr %1) #14
  unreachable
}

; Function Attrs: mustprogress uwtable
define void @_ZN8QuantLib8SettingsC2Ev(ptr noundef nonnull align 8 dereferenceable(28) %this) unnamed_addr #1 align 2 {
entry:
  %this.addr = alloca ptr, align 8
  store ptr %this, ptr %this.addr, align 8, !tbaa !3
  %this1 = load ptr, ptr %this.addr, align 8
  %evaluationDate_ = getelementptr inbounds nuw %"class.QuantLib::Settings", ptr %this1, i32 0, i32 0
  call void @_ZN8QuantLib8Settings9DateProxyC1Ev(ptr noundef nonnull align 8 dereferenceable(24) %evaluationDate_)
  %includeReferenceDateEvents_ = getelementptr inbounds nuw %"class.QuantLib::Settings", ptr %this1, i32 0, i32 1
  store i8 0, ptr %includeReferenceDateEvents_, align 8, !tbaa !13
  %includeTodaysCashFlows_ = getelementptr inbounds nuw %"class.QuantLib::Settings", ptr %this1, i32 0, i32 2
  call void @_ZN5boost8optionalIbEC2Ev(ptr noundef nonnull align 1 dereferenceable(2) %includeTodaysCashFlows_) #10
  %enforcesTodaysHistoricFixings_ = getelementptr inbounds nuw %"class.QuantLib::Settings", ptr %this1, i32 0, i32 3
  store i8 0, ptr %enforcesTodaysHistoricFixings_, align 1, !tbaa !21
  ret void
}