; Function Attrs: mustprogress uwtable
define void @_ZN8QuantLib8SettingsC2Ev(ptr noundef nonnull align 8 dereferenceable(28) %this) unnamed_addr #3 align 2 personality ptr @__gxx_personality_v0 {
entry:
  tail call void @_ZN8QuantLib8Settings9DateProxyC1Ev(ptr noundef nonnull align 8 dereferenceable(24) %this)
  %includeReferenceDateEvents_ = getelementptr inbounds nuw i8, ptr %this, i64 24
  store i8 0, ptr %includeReferenceDateEvents_, align 8, !tbaa !30
  %includeTodaysCashFlows_ = getelementptr inbounds nuw i8, ptr %this, i64 25
  store i8 0, ptr %includeTodaysCashFlows_, align 1, !tbaa !37
  %enforcesTodaysHistoricFixings_ = getelementptr inbounds nuw i8, ptr %this, i64 27
  store i8 0, ptr %enforcesTodaysHistoricFixings_, align 1, !tbaa !38
  ret void
}